target datalayout = "e-m:e-p270:32:32-p271:32:32-p272:64:64-i64:64-i128:128-f80:128-n8:16:32:64-S128"
target triple = "x86_64-pc-linux-gnu"

%struct.PyVarObject = type { %struct._object, i64 }
%struct._object = type { %union.anon, ptr }
%union.anon = type { i64 }
%struct.PyTupleObject = type { %struct.PyVarObject, [1 x ptr] }

; Function Attrs: inlinehint nounwind uwtable
define internal i64 @Py_SIZE(ptr noundef %0) #2 {
  %2 = alloca ptr, align 8
  store ptr %0, ptr %2, align 8, !tbaa !10
  %3 = load ptr, ptr %2, align 8, !tbaa !10
  %4 = getelementptr inbounds nuw %struct.PyVarObject, ptr %3, i32 0, i32 1
  %5 = load i64, ptr %4, align 8, !tbaa !108
  ret i64 %5
}

; Function Attrs: nounwind uwtable
define internal i64 @tuple_hash(ptr noundef %0) #0 {
  %2 = alloca i64, align 8
  %3 = alloca ptr, align 8
  %4 = alloca ptr, align 8
  %5 = alloca i64, align 8
  %6 = alloca ptr, align 8
  %7 = alloca i64, align 8
  %8 = alloca i64, align 8
  %9 = alloca i32, align 4
  %10 = alloca i64, align 8
  store ptr %0, ptr %3, align 8, !tbaa !10
  call void @llvm.lifetime.start.p0(i64 8, ptr %4) #9
  %11 = load ptr, ptr %3, align 8, !tbaa !10
  store ptr %11, ptr %4, align 8, !tbaa !8
  call void @llvm.lifetime.start.p0(i64 8, ptr %5) #9
  %12 = load ptr, ptr %4, align 8, !tbaa !8
  %13 = call i64 @Py_SIZE(ptr noundef %12)
  store i64 %13, ptr %5, align 8, !tbaa !4
  call void @llvm.lifetime.start.p0(i64 8, ptr %6) #9
  %14 = load ptr, ptr %4, align 8, !tbaa !8
  %15 = getelementptr inbounds nuw %struct.PyTupleObject, ptr %14, i32 0, i32 1
  %16 = getelementptr inbounds [1 x ptr], ptr %15, i64 0, i64 0
  store ptr %16, ptr %6, align 8, !tbaa !109
  call void @llvm.lifetime.start.p0(i64 8, ptr %7) #9
  store i64 2870177450012600261, ptr %7, align 8, !tbaa !4
  call void @llvm.lifetime.start.p0(i64 8, ptr %8) #9
  store i64 0, ptr %8, align 8, !tbaa !4
  br label %17

17:                                               ; preds = %46, %1
  %18 = load i64, ptr %8, align 8, !tbaa !4
  %19 = load i64, ptr %5, align 8, !tbaa !4
  %20 = icmp slt i64 %18, %19
  br i1 %20, label %22, label %21

21:                                               ; preds = %17
  store i32 2, ptr %9, align 4
  br label %49

22:                                               ; preds = %17
  call void @llvm.lifetime.start.p0(i64 8, ptr %10) #9
  %23 = load ptr, ptr %6, align 8, !tbaa !109
  %24 = load i64, ptr %8, align 8, !tbaa !4
  %25 = getelementptr ptr, ptr %23, i64 %24
  %26 = load ptr, ptr %25, align 8, !tbaa !10
  %27 = call i64 @PyObject_Hash(ptr noundef %26)
  store i64 %27, ptr %10, align 8, !tbaa !4
  %28 = load i64, ptr %10, align 8, !tbaa !4
  %29 = icmp eq i64 %28, -1
  br i1 %29, label %30, label %31

30:                                               ; preds = %22
  store i64 -1, ptr %2, align 8
  store i32 1, ptr %9, align 4
  br label %43

31:                                               ; preds = %22
  %32 = load i64, ptr %10, align 8, !tbaa !4
  %33 = mul i64 %32, -4417276706812531889
  %34 = load i64, ptr %7, align 8, !tbaa !4
  %35 = add i64 %34, %33
  store i64 %35, ptr %7, align 8, !tbaa !4
  %36 = load i64, ptr %7, align 8, !tbaa !4
  %37 = shl i64 %36, 31
  %38 = load i64, ptr %7, align 8, !tbaa !4
  %39 = lshr i64 %38, 33
  %40 = or i64 %37, %39
  store i64 %40, ptr %7, align 8, !tbaa !4
  %41 = load i64, ptr %7, align 8, !tbaa !4
  %42 = mul i64 %41, -7046029288634856825
  store i64 %42, ptr %7, align 8, !tbaa !4
  store i32 0, ptr %9, align 4
  br label %43

43:                                               ; preds = %31, %30
  call void @llvm.lifetime.end.p0(i64 8, ptr %10) #9
  %44 = load i32, ptr %9, align 4
  switch i32 %44, label %49 [
    i32 0, label %45
  ]

45:                                               ; preds = %43
  br label %46

46:                                               ; preds = %45
  %47 = load i64, ptr %8, align 8, !tbaa !4
  %48 = add i64 %47, 1
  store i64 %48, ptr %8, align 8, !tbaa !4
  br label %17, !llvm.loop !129

49:                                               ; preds = %43, %21
  call void @llvm.lifetime.end.p0(i64 8, ptr %8) #9
  %50 = load i32, ptr %9, align 4
  switch i32 %50, label %61 [
    i32 2, label %51
  ]

51:                                               ; preds = %49
  %52 = load i64, ptr %5, align 8, !tbaa !4
  %53 = xor i64 %52, 2870177450013471926
  %54 = load i64, ptr %7, align 8, !tbaa !4
  %55 = add i64 %54, %53
  store i64 %55, ptr %7, align 8, !tbaa !4
  %56 = load i64, ptr %7, align 8, !tbaa !4
  %57 = icmp eq i64 %56, -1
  br i1 %57, label %58, label %59

58:                                               ; preds = %51
  store i64 1546275796, ptr %2, align 8
  store i32 1, ptr %9, align 4
  br label %61

59:                                               ; preds = %51
  %60 = load i64, ptr %7, align 8, !tbaa !4
  store i64 %60, ptr %2, align 8
  store i32 1, ptr %9, align 4
  br label %61

61:                                               ; preds = %59, %58, %49
  call void @llvm.lifetime.end.p0(i64 8, ptr %7) #9
  call void @llvm.lifetime.end.p0(i64 8, ptr %6) #9
  call void @llvm.lifetime.end.p0(i64 8, ptr %5) #9
  call void @llvm.lifetime.end.p0(i64 8, ptr %4) #9
  %62 = load i64, ptr %2, align 8
  ret i64 %62
}