; Function Attrs: nounwind uwtable
define internal i64 @tuple_hash(ptr noundef readonly captures(none) %0) #0 {
  %2 = getelementptr i8, ptr %0, i64 16
  %.val = load i64, ptr %2, align 8, !tbaa !107
  %3 = getelementptr inbounds nuw i8, ptr %0, i64 24
  %.not2931 = icmp sgt i64 %.val, 0
  br i1 %.not2931, label %.lr.ph, label %.thread.thread

.lr.ph:                                           ; preds = %1, %7
  %.02333 = phi i64 [ %12, %7 ], [ 0, %1 ]
  %.02432 = phi i64 [ %11, %7 ], [ 2870177450012600261, %1 ]
  %4 = getelementptr ptr, ptr %3, i64 %.02333
  %5 = load ptr, ptr %4, align 8, !tbaa !25
  %6 = tail call i64 @PyObject_Hash(ptr noundef %5) #9
  %.not = icmp eq i64 %6, -1
  br i1 %.not, label %.loopexit, label %7

7:                                                ; preds = %.lr.ph
  %8 = mul i64 %6, -4417276706812531889
  %9 = add i64 %8, %.02432
  %10 = tail call i64 @llvm.fshl.i64(i64 %9, i64 %9, i64 31)
  %11 = mul i64 %10, -7046029288634856825
  %12 = add nuw nsw i64 %.02333, 1
  %exitcond.not = icmp eq i64 %12, %.val
  br i1 %exitcond.not, label %.thread.thread, label %.lr.ph, !llvm.loop !122

.thread.thread:                                   ; preds = %7, %1
  %.024.lcssa.ph = phi i64 [ 2870177450012600261, %1 ], [ %11, %7 ]
  %13 = xor i64 %.val, 2870177450013471926
  %14 = add i64 %.024.lcssa.ph, %13
  %15 = icmp eq i64 %14, -1
  %.41 = select i1 %15, i64 1546275796, i64 %14
  br label %.loopexit

.loopexit:                                        ; preds = %.lr.ph, %.thread.thread
  %16 = phi i64 [ %.41, %.thread.thread ], [ -1, %.lr.ph ]
  ret i64 %16
}